target datalayout = "e-m:e-p270:32:32-p271:32:32-p272:64:64-i64:64-i128:128-f80:128-n8:16:32:64-S128"
target triple = "x86_64-pc-linux-gnu"

%struct.hwloc_obj = type { i32, ptr, i32, ptr, i64, ptr, i32, i32, ptr, ptr, ptr, i32, ptr, ptr, i32, ptr, ptr, ptr, i32, i32, ptr, i32, ptr, i32, ptr, ptr, ptr, ptr, ptr, %struct.hwloc_infos_s, ptr, i64 }
%struct.hwloc_infos_s = type { ptr, i32, i32 }
%struct.lstopo_obj_userdata = type { %struct.hwloc_utils_userdata, i32, i32, %struct.lstopo_style, i32, i32, i32, i32, %struct.lstopo_children_position, %struct.lstopo_children_position, %struct.lstopo_children_position, %struct.lstopo_children_position, i32, i32, i32, [4 x %struct.lstopo_text_line], i32, i32 }
%struct.hwloc_utils_userdata = type { ptr, i64, ptr, ptr }
%struct.lstopo_style = type { ptr, ptr, ptr }
%struct.lstopo_children_position = type { i32, i32, i32, i32, i32, i32, ptr }
%struct.lstopo_text_line = type { [128 x i8], i32, i32 }

; Function Attrs: nounwind uwtable
define internal void @draw_children(ptr noundef %0, ptr noundef %1, i32 noundef %2, i32 noundef %3, i32 noundef %4) #0 {
  %6 = alloca ptr, align 8
  %7 = alloca ptr, align 8
  %8 = alloca i32, align 4
  %9 = alloca i32, align 4
  %10 = alloca i32, align 4
  %11 = alloca ptr, align 8
  store ptr %0, ptr %6, align 8, !tbaa !4
  store ptr %1, ptr %7, align 8, !tbaa !42
  store i32 %2, ptr %8, align 4, !tbaa !18
  store i32 %3, ptr %9, align 4, !tbaa !18
  store i32 %4, ptr %10, align 4, !tbaa !18
  call void @llvm.lifetime.start.p0(i64 8, ptr %11) #12
  %12 = load ptr, ptr %7, align 8, !tbaa !42
  %13 = getelementptr inbounds nuw %struct.hwloc_obj, ptr %12, i32 0, i32 30
  %14 = load ptr, ptr %13, align 8, !tbaa !44
  store ptr %14, ptr %11, align 8, !tbaa !50
  %15 = load ptr, ptr %11, align 8, !tbaa !50
  %16 = getelementptr inbounds nuw %struct.lstopo_obj_userdata, ptr %15, i32 0, i32 8
  %17 = getelementptr inbounds nuw %struct.lstopo_children_position, ptr %16, i32 0, i32 0
  %18 = load i32, ptr %17, align 8, !tbaa !168
  %19 = icmp ne i32 %18, 0
  br i1 %19, label %20, label %38

20:                                               ; preds = %5
  %21 = load ptr, ptr %6, align 8, !tbaa !4
  %22 = load ptr, ptr %7, align 8, !tbaa !42
  %23 = load ptr, ptr %11, align 8, !tbaa !50
  %24 = getelementptr inbounds nuw %struct.lstopo_obj_userdata, ptr %23, i32 0, i32 8
  %25 = load i32, ptr %8, align 4, !tbaa !18
  %26 = load i32, ptr %9, align 4, !tbaa !18
  %27 = load ptr, ptr %11, align 8, !tbaa !50
  %28 = getelementptr inbounds nuw %struct.lstopo_obj_userdata, ptr %27, i32 0, i32 8
  %29 = getelementptr inbounds nuw %struct.lstopo_children_position, ptr %28, i32 0, i32 3
  %30 = load i32, ptr %29, align 4, !tbaa !177
  %31 = add i32 %26, %30
  %32 = load i32, ptr %10, align 4, !tbaa !18
  %33 = load ptr, ptr %11, align 8, !tbaa !50
  %34 = getelementptr inbounds nuw %struct.lstopo_obj_userdata, ptr %33, i32 0, i32 8
  %35 = getelementptr inbounds nuw %struct.lstopo_children_position, ptr %34, i32 0, i32 4
  %36 = load i32, ptr %35, align 8, !tbaa !178
  %37 = add i32 %32, %36
  call void @draw__children(ptr noundef %21, ptr noundef %22, ptr noundef %24, i32 noundef %25, i32 noundef %31, i32 noundef %37)
  br label %38

38:                                               ; preds = %20, %5
  %39 = load ptr, ptr %11, align 8, !tbaa !50
  %40 = getelementptr inbounds nuw %struct.lstopo_obj_userdata, ptr %39, i32 0, i32 9
  %41 = getelementptr inbounds nuw %struct.lstopo_children_position, ptr %40, i32 0, i32 0
  %42 = load i32, ptr %41, align 8, !tbaa !148
  %43 = icmp ne i32 %42, 0
  br i1 %43, label %44, label %62

44:                                               ; preds = %38
  %45 = load ptr, ptr %6, align 8, !tbaa !4
  %46 = load ptr, ptr %7, align 8, !tbaa !42
  %47 = load ptr, ptr %11, align 8, !tbaa !50
  %48 = getelementptr inbounds nuw %struct.lstopo_obj_userdata, ptr %47, i32 0, i32 9
  %49 = load i32, ptr %8, align 4, !tbaa !18
  %50 = load i32, ptr %9, align 4, !tbaa !18
  %51 = load ptr, ptr %11, align 8, !tbaa !50
  %52 = getelementptr inbounds nuw %struct.lstopo_obj_userdata, ptr %51, i32 0, i32 9
  %53 = getelementptr inbounds nuw %struct.lstopo_children_position, ptr %52, i32 0, i32 3
  %54 = load i32, ptr %53, align 4, !tbaa !180
  %55 = add i32 %50, %54
  %56 = load i32, ptr %10, align 4, !tbaa !18
  %57 = load ptr, ptr %11, align 8, !tbaa !50
  %58 = getelementptr inbounds nuw %struct.lstopo_obj_userdata, ptr %57, i32 0, i32 9
  %59 = getelementptr inbounds nuw %struct.lstopo_children_position, ptr %58, i32 0, i32 4
  %60 = load i32, ptr %59, align 8, !tbaa !150
  %61 = add i32 %56, %60
  call void @draw__children(ptr noundef %45, ptr noundef %46, ptr noundef %48, i32 noundef %49, i32 noundef %55, i32 noundef %61)
  br label %62

62:                                               ; preds = %44, %38
  %63 = load ptr, ptr %11, align 8, !tbaa !50
  %64 = getelementptr inbounds nuw %struct.lstopo_obj_userdata, ptr %63, i32 0, i32 10
  %65 = getelementptr inbounds nuw %struct.lstopo_children_position, ptr %64, i32 0, i32 0
  %66 = load i32, ptr %65, align 8, !tbaa !169
  %67 = icmp ne i32 %66, 0
  br i1 %67, label %68, label %86

68:                                               ; preds = %62
  %69 = load ptr, ptr %6, align 8, !tbaa !4
  %70 = load ptr, ptr %7, align 8, !tbaa !42
  %71 = load ptr, ptr %11, align 8, !tbaa !50
  %72 = getelementptr inbounds nuw %struct.lstopo_obj_userdata, ptr %71, i32 0, i32 10
  %73 = load i32, ptr %8, align 4, !tbaa !18
  %74 = load i32, ptr %9, align 4, !tbaa !18
  %75 = load ptr, ptr %11, align 8, !tbaa !50
  %76 = getelementptr inbounds nuw %struct.lstopo_obj_userdata, ptr %75, i32 0, i32 10
  %77 = getelementptr inbounds nuw %struct.lstopo_children_position, ptr %76, i32 0, i32 3
  %78 = load i32, ptr %77, align 4, !tbaa !183
  %79 = add i32 %74, %78
  %80 = load i32, ptr %10, align 4, !tbaa !18
  %81 = load ptr, ptr %11, align 8, !tbaa !50
  %82 = getelementptr inbounds nuw %struct.lstopo_obj_userdata, ptr %81, i32 0, i32 10
  %83 = getelementptr inbounds nuw %struct.lstopo_children_position, ptr %82, i32 0, i32 4
  %84 = load i32, ptr %83, align 8, !tbaa !184
  %85 = add i32 %80, %84
  call void @draw__children(ptr noundef %69, ptr noundef %70, ptr noundef %72, i32 noundef %73, i32 noundef %79, i32 noundef %85)
  br label %86

86:                                               ; preds = %68, %62
  %87 = load ptr, ptr %11, align 8, !tbaa !50
  %88 = getelementptr inbounds nuw %struct.lstopo_obj_userdata, ptr %87, i32 0, i32 11
  %89 = getelementptr inbounds nuw %struct.lstopo_children_position, ptr %88, i32 0, i32 0
  %90 = load i32, ptr %89, align 8, !tbaa !170
  %91 = icmp ne i32 %90, 0
  br i1 %91, label %92, label %110

92:                                               ; preds = %86
  %93 = load ptr, ptr %6, align 8, !tbaa !4
  %94 = load ptr, ptr %7, align 8, !tbaa !42
  %95 = load ptr, ptr %11, align 8, !tbaa !50
  %96 = getelementptr inbounds nuw %struct.lstopo_obj_userdata, ptr %95, i32 0, i32 11
  %97 = load i32, ptr %8, align 4, !tbaa !18
  %98 = load i32, ptr %9, align 4, !tbaa !18
  %99 = load ptr, ptr %11, align 8, !tbaa !50
  %100 = getelementptr inbounds nuw %struct.lstopo_obj_userdata, ptr %99, i32 0, i32 11
  %101 = getelementptr inbounds nuw %struct.lstopo_children_position, ptr %100, i32 0, i32 3
  %102 = load i32, ptr %101, align 4, !tbaa !187
  %103 = add i32 %98, %102
  %104 = load i32, ptr %10, align 4, !tbaa !18
  %105 = load ptr, ptr %11, align 8, !tbaa !50
  %106 = getelementptr inbounds nuw %struct.lstopo_obj_userdata, ptr %105, i32 0, i32 11
  %107 = getelementptr inbounds nuw %struct.lstopo_children_position, ptr %106, i32 0, i32 4
  %108 = load i32, ptr %107, align 8, !tbaa !188
  %109 = add i32 %104, %108
  call void @draw__children(ptr noundef %93, ptr noundef %94, ptr noundef %96, i32 noundef %97, i32 noundef %103, i32 noundef %109)
  br label %110

110:                                              ; preds = %92, %86
  call void @llvm.lifetime.end.p0(i64 8, ptr %11) #12
  ret void
}