; Function Attrs: nounwind uwtable
define internal fastcc void @draw_children(ptr noundef %0, ptr noundef %1, i32 noundef %2, i32 noundef %3, i32 noundef %4) unnamed_addr #8 {
  %6 = getelementptr inbounds nuw i8, ptr %1, i64 232
  %7 = load ptr, ptr %6, align 8, !tbaa !37
  %8 = getelementptr inbounds nuw i8, ptr %7, i64 80
  %9 = load i32, ptr %8, align 8, !tbaa !145
  %.not = icmp eq i32 %9, 0
  br i1 %.not, label %17, label %10

10:                                               ; preds = %5
  %11 = getelementptr inbounds nuw i8, ptr %7, i64 92
  %12 = load i32, ptr %11, align 4, !tbaa !161
  %13 = add i32 %12, %3
  %14 = getelementptr inbounds nuw i8, ptr %7, i64 96
  %15 = load i32, ptr %14, align 8, !tbaa !162
  %16 = add i32 %15, %4
  tail call fastcc void @draw__children(ptr noundef %0, ptr noundef nonnull %1, ptr noundef nonnull %8, i32 noundef %2, i32 noundef %13, i32 noundef %16)
  br label %17

17:                                               ; preds = %10, %5
  %18 = getelementptr inbounds nuw i8, ptr %7, i64 112
  %19 = load i32, ptr %18, align 8, !tbaa !126
  %.not36 = icmp eq i32 %19, 0
  br i1 %.not36, label %27, label %20

20:                                               ; preds = %17
  %21 = getelementptr inbounds nuw i8, ptr %7, i64 124
  %22 = load i32, ptr %21, align 4, !tbaa !164
  %23 = add i32 %22, %3
  %24 = getelementptr inbounds nuw i8, ptr %7, i64 128
  %25 = load i32, ptr %24, align 8, !tbaa !128
  %26 = add i32 %25, %4
  tail call fastcc void @draw__children(ptr noundef %0, ptr noundef nonnull %1, ptr noundef nonnull %18, i32 noundef %2, i32 noundef %23, i32 noundef %26)
  br label %27

27:                                               ; preds = %20, %17
  %28 = getelementptr inbounds nuw i8, ptr %7, i64 144
  %29 = load i32, ptr %28, align 8, !tbaa !146
  %.not37 = icmp eq i32 %29, 0
  br i1 %.not37, label %37, label %30

30:                                               ; preds = %27
  %31 = getelementptr inbounds nuw i8, ptr %7, i64 156
  %32 = load i32, ptr %31, align 4, !tbaa !167
  %33 = add i32 %32, %3
  %34 = getelementptr inbounds nuw i8, ptr %7, i64 160
  %35 = load i32, ptr %34, align 8, !tbaa !168
  %36 = add i32 %35, %4
  tail call fastcc void @draw__children(ptr noundef %0, ptr noundef nonnull %1, ptr noundef nonnull %28, i32 noundef %2, i32 noundef %33, i32 noundef %36)
  br label %37

37:                                               ; preds = %30, %27
  %38 = getelementptr inbounds nuw i8, ptr %7, i64 176
  %39 = load i32, ptr %38, align 8, !tbaa !147
  %.not38 = icmp eq i32 %39, 0
  br i1 %.not38, label %47, label %40

40:                                               ; preds = %37
  %41 = getelementptr inbounds nuw i8, ptr %7, i64 188
  %42 = load i32, ptr %41, align 4, !tbaa !171
  %43 = add i32 %42, %3
  %44 = getelementptr inbounds nuw i8, ptr %7, i64 192
  %45 = load i32, ptr %44, align 8, !tbaa !172
  %46 = add i32 %45, %4
  tail call fastcc void @draw__children(ptr noundef %0, ptr noundef nonnull %1, ptr noundef nonnull %38, i32 noundef %2, i32 noundef %43, i32 noundef %46)
  br label %47

47:                                               ; preds = %40, %37
  ret void
}